target datalayout = "e-m:e-p270:32:32-p271:32:32-p272:64:64-i64:64-i128:128-f80:128-n8:16:32:64-S128"
target triple = "x86_64-pc-linux-gnu"

%struct.CK_FUNCTION_LIST = type { %struct.CK_VERSION, ptr, ptr, ptr, ptr, ptr, ptr, ptr, ptr, ptr, ptr, ptr, ptr, ptr, ptr, ptr, ptr, ptr, ptr, ptr, ptr, ptr, ptr, ptr, ptr, ptr, ptr, ptr, ptr, ptr, ptr, ptr, ptr, ptr, ptr, ptr, ptr, ptr, ptr, ptr, ptr, ptr, ptr, ptr, ptr, ptr, ptr, ptr, ptr, ptr, ptr, ptr, ptr, ptr, ptr, ptr, ptr, ptr, ptr, ptr, ptr, ptr, ptr, ptr, ptr, ptr, ptr, ptr, ptr }
%struct.CK_VERSION = type { i8, i8 }

; Function Attrs: nounwind uwtable
define void @Java_sun_security_pkcs11_wrapper_PKCS11_C_1DigestKey(ptr noundef %0, ptr noundef %1, i64 noundef %2, i64 noundef %3) #0 {
  %5 = alloca ptr, align 8
  %6 = alloca ptr, align 8
  %7 = alloca i64, align 8
  %8 = alloca i64, align 8
  %9 = alloca i64, align 8
  %10 = alloca i64, align 8
  %11 = alloca i64, align 8
  %12 = alloca ptr, align 8
  store ptr %0, ptr %5, align 8
  store ptr %1, ptr %6, align 8
  store i64 %2, ptr %7, align 8
  store i64 %3, ptr %8, align 8
  %13 = load ptr, ptr %5, align 8
  %14 = load ptr, ptr %6, align 8
  %15 = call ptr @getFunctionList(ptr noundef %13, ptr noundef %14)
  store ptr %15, ptr %12, align 8
  %16 = load ptr, ptr %12, align 8
  %17 = icmp eq ptr %16, null
  br i1 %17, label %18, label %19

18:                                               ; preds = %4
  br label %33

19:                                               ; preds = %4
  %20 = load i64, ptr %7, align 8
  store i64 %20, ptr %9, align 8
  %21 = load i64, ptr %8, align 8
  store i64 %21, ptr %10, align 8
  %22 = load ptr, ptr %12, align 8
  %23 = getelementptr inbounds %struct.CK_FUNCTION_LIST, ptr %22, i32 0, i32 41
  %24 = load ptr, ptr %23, align 8
  %25 = load i64, ptr %9, align 8
  %26 = load i64, ptr %10, align 8
  %27 = call i64 %24(i64 noundef %25, i64 noundef %26)
  store i64 %27, ptr %11, align 8
  %28 = load ptr, ptr %5, align 8
  %29 = load i64, ptr %11, align 8
  %30 = call i64 @ckAssertReturnValueOK(ptr noundef %28, i64 noundef %29)
  %31 = icmp ne i64 %30, 0
  br i1 %31, label %32, label %33

32:                                               ; preds = %19
  br label %33

33:                                               ; preds = %32, %19, %18
  ret void
}