; Function Attrs: nounwind uwtable
define void @Java_sun_security_pkcs11_wrapper_PKCS11_C_1DigestKey(ptr noundef %0, ptr noundef %1, i64 noundef %2, i64 noundef %3) local_unnamed_addr #0 {
  %5 = tail call ptr @getFunctionList(ptr noundef %0, ptr noundef %1) #5
  %6 = icmp eq ptr %5, null
  br i1 %6, label %12, label %7

7:                                                ; preds = %4
  %8 = getelementptr inbounds i8, ptr %5, i64 328
  %9 = load ptr, ptr %8, align 8
  %10 = tail call i64 %9(i64 noundef %2, i64 noundef %3) #5
  %11 = tail call i64 @ckAssertReturnValueOK(ptr noundef %0, i64 noundef %10) #5
  br label %12

12:                                               ; preds = %7, %4
  ret void
}